Certificate:
    Data:
        Version: 3 (0x2)
        Serial Number: 1 (0x1)
        Signature Algorithm: ecdsa-with-SHA256
        Issuer: CN=18.135.98.179
        Validity
            Not Before: Nov 12 18:09:57 2021 GMT
            Not After : Nov 10 18:09:57 2031 GMT
        Subject: CN=18.135.98.179
        Subject Public Key Info:
            Public Key Algorithm: id-ecPublicKey
                Public-Key: (384 bit)
                pub:
                    04:61:f0:5f:40:ba:a8:fc:58:d2:4c:0e:19:7f:d6:
                    a1:8e:79:99:9b:85:b2:13:81:89:43:ef:3d:39:e9:
                    30:4d:8d:16:47:99:e0:46:b5:cf:ab:06:0d:38:79:
                    ca:c4:4a:68:79:30:8c:5b:14:bf:c3:a2:fb:ba:fc:
                    b5:6c:a6:03:2d:e0:d2:63:57:90:0e:9b:3d:ee:28:
                    54:df:dc:31:70:95:0e:2a:d6:94:49:c8:a0:2e:2f:
                    38:24:d2:69:ac:d8:d3
                ASN1 OID: secp384r1
                NIST CURVE: P-384
        X509v3 extensions:
            X509v3 Basic Constraints: 
                CA:FALSE
            X509v3 Subject Key Identifier: 
                D5:E9:33:11:79:53:3C:17:0A:CE:D0:7F:C6:07:57:9E:2B:F1:AC:0C
            X509v3 Authority Key Identifier: 
                keyid:9F:80:CE:BA:E7:01:65:BC:3E:C6:E0:8A:35:5D:48:6A:BC:A7:D5:89
                DirName:/CN=18.135.98.179
                serial:58:DB:B2:4E:39:CE:89:42:2B:3F:D5:A5:0C:FA:34:65:30:74:0F:FD

            X509v3 Extended Key Usage: 
                TLS Web Server Authentication, TLS Web Client Authentication, ipsec Internet Key Exchange
            X509v3 Key Usage: 
                Digital Signature, Key Encipherment
            X509v3 Subject Alternative Name: 
                IP Address:18.135.98.179, IP Address:2A05:D01C:4EC:7E00:695D:1354:5BEE:D45F
    Signature Algorithm: ecdsa-with-SHA256
         30:66:02:31:00:a3:a4:d3:24:65:05:37:69:e5:92:e0:b6:b9:
         f2:b4:bd:2c:a0:90:e3:36:e7:89:38:0e:af:b6:8a:1b:70:ea:
         03:22:02:87:9e:6f:ff:4b:05:8b:31:28:9d:6d:99:eb:55:02:
         31:00:8a:68:56:95:e9:61:4b:74:a5:29:a5:d6:f0:0b:96:22:
         89:cd:e8:12:35:17:3f:50:32:8b:5b:e3:85:e3:3c:97:2a:92:
         80:0b:27:07:a1:3f:bb:4e:3c:96:89:fe:00:46
-----BEGIN CERTIFICATE-----
MIICOTCCAb6gAwIBAgIBATAKBggqhkjOPQQDAjAYMRYwFAYDVQQDDA0xOC4xMzUu
OTguMTc5MB4XDTIxMTExMjE4MDk1N1oXDTMxMTExMDE4MDk1N1owGDEWMBQGA1UE
AwwNMTguMTM1Ljk4LjE3OTB2MBAGByqGSM49AgEGBSuBBAAiA2IABGHwX0C6qPxY
0kwOGX/WoY55mZuFshOBiUPvPTnpME2NFkeZ4Ea1z6sGDTh5ysRKaHkwjFsUv8Oi
+7r8tWymAy3g0mNXkA6bPe4oVN/cMXCVDirWlEnIoC4vOCTSaazY06OB2zCB2DAJ
BgNVHRMEAjAAMB0GA1UdDgQWBBTV6TMReVM8FwrO0H/GB1eeK/GsDDBTBgNVHSME
TDBKgBSfgM665wFlvD7G4Io1XUhqvKfViaEcpBowGDEWMBQGA1UEAwwNMTguMTM1
Ljk4LjE3OYIUWNuyTjnOiUIrP9WlDPo0ZTB0D/0wJwYDVR0lBCAwHgYIKwYBBQUH
AwEGCCsGAQUFBwMCBggrBgEFBQcDETALBgNVHQ8EBAMCBaAwIQYDVR0RBBowGIcE
Eodis4cQKgXQHATsfgBpXRNUW+7UXzAKBggqhkjOPQQDAgNpADBmAjEAo6TTJGUF
N2nlkuC2ufK0vSygkOM254k4Dq+2ihtw6gMiAoeeb/9LBYsxKJ1tmetVAjEAimhW
lelhS3SlKaXW8AuWIonN6BI1Fz9QMotb44XjPJcqkoALJwehP7tOPJaJ/gBG
-----END CERTIFICATE-----
