Certificate:
    Data:
        Version: 3 (0x2)
        Serial Number: 3 (0x3)
        Signature Algorithm: ecdsa-with-SHA256
        Issuer: CN=18.135.98.179
        Validity
            Not Before: Nov 12 18:09:58 2021 GMT
            Not After : Nov 10 18:09:58 2031 GMT
        Subject: CN=test2
        Subject Public Key Info:
            Public Key Algorithm: id-ecPublicKey
                Public-Key: (384 bit)
                pub:
                    04:4e:c2:59:8e:43:31:ac:cf:c7:b2:7a:de:cf:c5:
                    27:78:70:f2:5a:cd:be:eb:07:c3:75:c2:10:d2:d7:
                    55:70:cf:a5:70:9b:45:79:d9:66:44:c5:b4:64:9e:
                    97:8a:50:6f:7a:ad:20:4a:77:bf:16:c4:73:7e:c2:
                    fc:2a:d8:ce:d9:a3:1d:eb:23:82:52:72:0e:2f:c2:
                    a9:94:13:94:27:84:e4:c8:1f:30:6c:19:3f:81:2b:
                    cc:be:6a:43:73:71:d7
                ASN1 OID: secp384r1
                NIST CURVE: P-384
        X509v3 extensions:
            X509v3 Basic Constraints: 
                CA:FALSE
            X509v3 Subject Key Identifier: 
                47:96:FF:AE:C5:48:BF:CC:51:F0:20:B6:AE:A9:B4:75:59:B4:1F:B0
            X509v3 Authority Key Identifier: 
                keyid:9F:80:CE:BA:E7:01:65:BC:3E:C6:E0:8A:35:5D:48:6A:BC:A7:D5:89
                DirName:/CN=18.135.98.179
                serial:58:DB:B2:4E:39:CE:89:42:2B:3F:D5:A5:0C:FA:34:65:30:74:0F:FD

            X509v3 Extended Key Usage: 
                TLS Web Server Authentication, TLS Web Client Authentication, ipsec Internet Key Exchange
            X509v3 Key Usage: 
                Digital Signature, Key Encipherment
            X509v3 Subject Alternative Name: 
                email:test2@3915df64-2fbf-5289-b480-85f5c94ab233.algo
    Signature Algorithm: ecdsa-with-SHA256
         30:64:02:30:52:0d:52:1c:ad:06:08:3a:84:b5:a5:f5:3d:78:
         d5:c8:39:f6:d3:78:25:fe:da:88:d5:12:16:d0:ca:ad:5d:76:
         bb:92:78:30:0e:81:fd:02:25:40:11:e2:6d:2d:54:14:02:30:
         37:19:39:2c:3c:ed:f7:30:f0:92:df:8e:75:90:c0:9c:75:f6:
         e2:38:d6:33:0b:c9:53:6c:6c:48:3b:2b:51:5d:ab:7f:49:53:
         86:f7:58:d6:b4:37:99:2f:ba:e2:ca:c9
-----BEGIN CERTIFICATE-----
MIICSDCCAc+gAwIBAgIBAzAKBggqhkjOPQQDAjAYMRYwFAYDVQQDDA0xOC4xMzUu
OTguMTc5MB4XDTIxMTExMjE4MDk1OFoXDTMxMTExMDE4MDk1OFowEDEOMAwGA1UE
AwwFdGVzdDIwdjAQBgcqhkjOPQIBBgUrgQQAIgNiAAROwlmOQzGsz8eyet7PxSd4
cPJazb7rB8N1whDS11Vwz6Vwm0V52WZExbRknpeKUG96rSBKd78WxHN+wvwq2M7Z
ox3rI4JScg4vwqmUE5QnhOTIHzBsGT+BK8y+akNzcdejgfQwgfEwCQYDVR0TBAIw
ADAdBgNVHQ4EFgQUR5b/rsVIv8xR8CC2rqm0dVm0H7AwUwYDVR0jBEwwSoAUn4DO
uucBZbw+xuCKNV1Iaryn1YmhHKQaMBgxFjAUBgNVBAMMDTE4LjEzNS45OC4xNzmC
FFjbsk45zolCKz/VpQz6NGUwdA/9MCcGA1UdJQQgMB4GCCsGAQUFBwMBBggrBgEF
BQcDAgYIKwYBBQUHAxEwCwYDVR0PBAQDAgWgMDoGA1UdEQQzMDGBL3Rlc3QyQDM5
MTVkZjY0LTJmYmYtNTI4OS1iNDgwLTg1ZjVjOTRhYjIzMy5hbGdvMAoGCCqGSM49
BAMCA2cAMGQCMFINUhytBgg6hLWl9T141cg59tN4Jf7aiNUSFtDKrV12u5J4MA6B
/QIlQBHibS1UFAIwNxk5LDzt9zDwkt+OdZDAnHX24jjWMwvJU2xsSDsrUV2rf0lT
hvdY1rQ3mS+64srJ
-----END CERTIFICATE-----
