Certificate:
    Data:
        Version: 3 (0x2)
        Serial Number: 4 (0x4)
        Signature Algorithm: ecdsa-with-SHA256
        Issuer: CN=18.135.98.179
        Validity
            Not Before: Nov 12 18:09:58 2021 GMT
            Not After : Nov 10 18:09:58 2031 GMT
        Subject: CN=test3
        Subject Public Key Info:
            Public Key Algorithm: id-ecPublicKey
                Public-Key: (384 bit)
                pub:
                    04:72:2b:3a:cd:fa:39:10:03:cb:12:d8:32:29:78:
                    80:ba:2d:fd:56:f2:3b:5e:61:cf:4d:b0:0d:02:3a:
                    ac:e6:d0:36:4e:1a:39:45:3c:2a:c2:e5:b3:27:7f:
                    5e:b6:23:b8:02:d4:34:62:02:eb:cd:22:80:97:76:
                    5f:da:4f:8a:2e:65:98:f6:29:34:17:a4:3b:42:4e:
                    b0:40:2d:d1:70:20:88:e8:8f:fa:d9:07:ba:d3:12:
                    b6:57:20:ad:91:1e:63
                ASN1 OID: secp384r1
                NIST CURVE: P-384
        X509v3 extensions:
            X509v3 Basic Constraints: 
                CA:FALSE
            X509v3 Subject Key Identifier: 
                B9:AB:B3:11:1D:FD:31:82:BC:6B:6E:52:54:37:B1:39:19:51:08:FA
            X509v3 Authority Key Identifier: 
                keyid:9F:80:CE:BA:E7:01:65:BC:3E:C6:E0:8A:35:5D:48:6A:BC:A7:D5:89
                DirName:/CN=18.135.98.179
                serial:58:DB:B2:4E:39:CE:89:42:2B:3F:D5:A5:0C:FA:34:65:30:74:0F:FD

            X509v3 Extended Key Usage: 
                TLS Web Server Authentication, TLS Web Client Authentication, ipsec Internet Key Exchange
            X509v3 Key Usage: 
                Digital Signature, Key Encipherment
            X509v3 Subject Alternative Name: 
                email:test3@3915df64-2fbf-5289-b480-85f5c94ab233.algo
    Signature Algorithm: ecdsa-with-SHA256
         30:66:02:31:00:84:57:0e:1b:64:65:8c:99:f9:74:6b:e3:e1:
         a1:c8:f4:1f:70:6e:42:3a:ea:17:d1:23:f8:30:1f:77:cf:1a:
         5e:9f:58:3f:29:de:e7:af:50:d0:4c:db:c9:2f:73:e4:db:02:
         31:00:ed:bc:ae:92:fb:90:6e:2c:5a:02:e6:e0:cd:4e:12:23:
         76:8a:e0:a3:de:25:d3:c3:15:98:a5:23:9a:47:63:15:38:b9:
         e2:03:0d:c1:a2:b4:6a:84:5f:62:91:6c:c2:76
-----BEGIN CERTIFICATE-----
MIICSjCCAc+gAwIBAgIBBDAKBggqhkjOPQQDAjAYMRYwFAYDVQQDDA0xOC4xMzUu
OTguMTc5MB4XDTIxMTExMjE4MDk1OFoXDTMxMTExMDE4MDk1OFowEDEOMAwGA1UE
AwwFdGVzdDMwdjAQBgcqhkjOPQIBBgUrgQQAIgNiAARyKzrN+jkQA8sS2DIpeIC6
Lf1W8jteYc9NsA0COqzm0DZOGjlFPCrC5bMnf162I7gC1DRiAuvNIoCXdl/aT4ou
ZZj2KTQXpDtCTrBALdFwIIjoj/rZB7rTErZXIK2RHmOjgfQwgfEwCQYDVR0TBAIw
ADAdBgNVHQ4EFgQUuauzER39MYK8a25SVDexORlRCPowUwYDVR0jBEwwSoAUn4DO
uucBZbw+xuCKNV1Iaryn1YmhHKQaMBgxFjAUBgNVBAMMDTE4LjEzNS45OC4xNzmC
FFjbsk45zolCKz/VpQz6NGUwdA/9MCcGA1UdJQQgMB4GCCsGAQUFBwMBBggrBgEF
BQcDAgYIKwYBBQUHAxEwCwYDVR0PBAQDAgWgMDoGA1UdEQQzMDGBL3Rlc3QzQDM5
MTVkZjY0LTJmYmYtNTI4OS1iNDgwLTg1ZjVjOTRhYjIzMy5hbGdvMAoGCCqGSM49
BAMCA2kAMGYCMQCEVw4bZGWMmfl0a+Phocj0H3BuQjrqF9Ej+DAfd88aXp9YPyne
569Q0EzbyS9z5NsCMQDtvK6S+5BuLFoC5uDNThIjdorgo94l08MVmKUjmkdjFTi5
4gMNwaK0aoRfYpFswnY=
-----END CERTIFICATE-----
